; ModuleID = '16/676.c'
source_filename = "16/676.c"
target datalayout = "e-m:e-p270:32:32-p271:32:32-p272:64:64-i64:64-f80:128-n8:16:32:64-S128"
target triple = "x86_64-pc-linux-gnu"

@.str = private unnamed_addr constant [3 x i8] c"%d\00", align 1
@.str.1 = private unnamed_addr constant [9 x i8] c"%d%d%d%d\00", align 1
@.str.2 = private unnamed_addr constant [7 x i8] c"%d%d%d\00", align 1
@.str.3 = private unnamed_addr constant [5 x i8] c"%d%d\00", align 1
@.str.4 = private unnamed_addr constant [4 x i8] c"%d\0A\00", align 1

; Function Attrs: noinline nounwind uwtable
define dso_local i32 @main() #0 {
  %1 = alloca i32, align 4
  %2 = alloca i32, align 4
  %3 = alloca i32, align 4
  %4 = alloca i32, align 4
  %5 = alloca i32, align 4
  %6 = alloca i32, align 4
  store i32 0, i32* %1, align 4
  %7 = call i32 (i8*, ...) @__isoc99_scanf(i8* getelementptr inbounds ([3 x i8], [3 x i8]* @.str, i64 0, i64 0), i32* %2)
  %8 = load i32, i32* %2, align 4
  %9 = sdiv i32 %8, 1000
  %10 = icmp ne i32 %9, 0
  br i1 %10, label %11, label %35

11:                                               ; preds = %0
  %12 = load i32, i32* %2, align 4
  %13 = sdiv i32 %12, 1000
  store i32 %13, i32* %3, align 4
  %14 = load i32, i32* %2, align 4
  %15 = load i32, i32* %3, align 4
  %16 = mul nsw i32 1000, %15
  %17 = sub nsw i32 %14, %16
  store i32 %17, i32* %2, align 4
  %18 = load i32, i32* %2, align 4
  %19 = sdiv i32 %18, 100
  store i32 %19, i32* %4, align 4
  %20 = load i32, i32* %2, align 4
  %21 = load i32, i32* %4, align 4
  %22 = mul nsw i32 100, %21
  %23 = sub nsw i32 %20, %22
  store i32 %23, i32* %2, align 4
  %24 = load i32, i32* %2, align 4
  %25 = sdiv i32 %24, 10
  store i32 %25, i32* %5, align 4
  %26 = load i32, i32* %2, align 4
  %27 = load i32, i32* %5, align 4
  %28 = mul nsw i32 10, %27
  %29 = sub nsw i32 %26, %28
  store i32 %29, i32* %6, align 4
  %30 = load i32, i32* %6, align 4
  %31 = load i32, i32* %5, align 4
  %32 = load i32, i32* %4, align 4
  %33 = load i32, i32* %3, align 4
  %34 = call i32 (i8*, ...) @printf(i8* getelementptr inbounds ([9 x i8], [9 x i8]* @.str.1, i64 0, i64 0), i32 %30, i32 %31, i32 %32, i32 %33)
  br label %75

35:                                               ; preds = %0
  %36 = load i32, i32* %2, align 4
  %37 = sdiv i32 %36, 100
  %38 = icmp ne i32 %37, 0
  br i1 %38, label %39, label %56

39:                                               ; preds = %35
  %40 = load i32, i32* %2, align 4
  %41 = sdiv i32 %40, 100
  store i32 %41, i32* %4, align 4
  %42 = load i32, i32* %2, align 4
  %43 = load i32, i32* %4, align 4
  %44 = mul nsw i32 100, %43
  %45 = sub nsw i32 %42, %44
  store i32 %45, i32* %2, align 4
  %46 = load i32, i32* %2, align 4
  %47 = sdiv i32 %46, 10
  store i32 %47, i32* %5, align 4
  %48 = load i32, i32* %2, align 4
  %49 = load i32, i32* %5, align 4
  %50 = mul nsw i32 10, %49
  %51 = sub nsw i32 %48, %50
  store i32 %51, i32* %6, align 4
  %52 = load i32, i32* %6, align 4
  %53 = load i32, i32* %5, align 4
  %54 = load i32, i32* %4, align 4
  %55 = call i32 (i8*, ...) @printf(i8* getelementptr inbounds ([7 x i8], [7 x i8]* @.str.2, i64 0, i64 0), i32 %52, i32 %53, i32 %54)
  br label %74

56:                                               ; preds = %35
  %57 = load i32, i32* %2, align 4
  %58 = sdiv i32 %57, 10
  %59 = icmp ne i32 %58, 0
  br i1 %59, label %60, label %70

60:                                               ; preds = %56
  %61 = load i32, i32* %2, align 4
  %62 = sdiv i32 %61, 10
  store i32 %62, i32* %5, align 4
  %63 = load i32, i32* %2, align 4
  %64 = load i32, i32* %5, align 4
  %65 = mul nsw i32 10, %64
  %66 = sub nsw i32 %63, %65
  store i32 %66, i32* %6, align 4
  %67 = load i32, i32* %6, align 4
  %68 = load i32, i32* %5, align 4
  %69 = call i32 (i8*, ...) @printf(i8* getelementptr inbounds ([5 x i8], [5 x i8]* @.str.3, i64 0, i64 0), i32 %67, i32 %68)
  br label %73

70:                                               ; preds = %56
  %71 = load i32, i32* %2, align 4
  %72 = call i32 (i8*, ...) @printf(i8* getelementptr inbounds ([4 x i8], [4 x i8]* @.str.4, i64 0, i64 0), i32 %71)
  br label %73

73:                                               ; preds = %70, %60
  br label %74

74:                                               ; preds = %73, %39
  br label %75

75:                                               ; preds = %74, %11
  %76 = load i32, i32* %1, align 4
  ret i32 %76
}

declare dso_local i32 @__isoc99_scanf(i8*, ...) #1

declare dso_local i32 @printf(i8*, ...) #1


!llvm.module.flags = !{!0}
!llvm.ident = !{!1}

!0 = !{i32 1, !"wchar_size", i32 4}
!1 = !{!"clang version 10.0.0-4ubuntu1 "}
